; ModuleID = 'source-C-CXX/10/846.c'
source_filename = "source-C-CXX/10/846.c"
target datalayout = "e-m:e-p270:32:32-p271:32:32-p272:64:64-i64:64-f80:128-n8:16:32:64-S128"
target triple = "x86_64-pc-linux-gnu"

@__const.whichday.mon = private unnamed_addr constant [12 x i32] [i32 31, i32 28, i32 31, i32 30, i32 31, i32 30, i32 31, i32 31, i32 30, i32 31, i32 30, i32 31], align 16
@.str = private unnamed_addr constant [7 x i8] c"%d%d%d\00", align 1
@.str.1 = private unnamed_addr constant [3 x i8] c"%d\00", align 1

; Function Attrs: mustprogress nofree norecurse nosync nounwind readnone sspstrong uwtable willreturn
define dso_local i32 @leapyear(i32 %0) local_unnamed_addr #0 {
  %2 = srem i32 %0, 400
  %3 = icmp eq i32 %2, 0
  br i1 %3, label %11, label %4

4:                                                ; preds = %1
  %5 = and i32 %0, 3
  %6 = icmp eq i32 %5, 0
  %7 = srem i32 %0, 100
  %8 = icmp ne i32 %7, 0
  %9 = and i1 %6, %8
  %10 = zext i1 %9 to i32
  br label %11

11:                                               ; preds = %4, %1
  %12 = phi i32 [ 1, %1 ], [ %10, %4 ]
  ret i32 %12
}

; Function Attrs: nofree nosync nounwind readnone sspstrong uwtable
define dso_local i32 @whichday(i32 %0, i32 %1, i32 %2) local_unnamed_addr #1 {
  %4 = alloca [12 x i32], align 16
  %5 = bitcast [12 x i32]* %4 to i8*
  call void @llvm.lifetime.start.p0i8(i64 48, i8* nonnull %5) #7
  call void @llvm.memcpy.p0i8.p0i8.i64(i8* noundef nonnull align 16 dereferenceable(48) %5, i8* noundef nonnull align 16 dereferenceable(48) bitcast ([12 x i32]* @__const.whichday.mon to i8*), i64 48, i1 false)
  %6 = srem i32 %0, 400
  %7 = icmp eq i32 %6, 0
  br i1 %7, label %14, label %8

8:                                                ; preds = %3
  %9 = and i32 %0, 3
  %10 = icmp eq i32 %9, 0
  %11 = srem i32 %0, 100
  %12 = icmp ne i32 %11, 0
  %13 = and i1 %10, %12
  br i1 %13, label %14, label %16

14:                                               ; preds = %3, %8
  %15 = getelementptr inbounds [12 x i32], [12 x i32]* %4, i64 0, i64 1
  store i32 29, i32* %15, align 4, !tbaa !5
  br label %16

16:                                               ; preds = %14, %8
  %17 = icmp sgt i32 %1, 1
  br i1 %17, label %18, label %114

18:                                               ; preds = %16
  %19 = add nsw i32 %1, -1
  %20 = zext i32 %19 to i64
  %21 = icmp ult i32 %19, 8
  br i1 %21, label %103, label %22

22:                                               ; preds = %18
  %23 = and i64 %20, 4294967288
  %24 = add nsw i64 %23, -8
  %25 = lshr exact i64 %24, 3
  %26 = add nuw nsw i64 %25, 1
  %27 = and i64 %26, 3
  %28 = icmp ult i64 %24, 24
  br i1 %28, label %74, label %29

29:                                               ; preds = %22
  %30 = and i64 %26, 4611686018427387900
  br label %31

31:                                               ; preds = %31, %29
  %32 = phi i64 [ 0, %29 ], [ %71, %31 ]
  %33 = phi <4 x i32> [ zeroinitializer, %29 ], [ %69, %31 ]
  %34 = phi <4 x i32> [ zeroinitializer, %29 ], [ %70, %31 ]
  %35 = phi i64 [ %30, %29 ], [ %72, %31 ]
  %36 = getelementptr inbounds [12 x i32], [12 x i32]* %4, i64 0, i64 %32
  %37 = bitcast i32* %36 to <4 x i32>*
  %38 = load <4 x i32>, <4 x i32>* %37, align 16, !tbaa !5
  %39 = getelementptr inbounds i32, i32* %36, i64 4
  %40 = bitcast i32* %39 to <4 x i32>*
  %41 = load <4 x i32>, <4 x i32>* %40, align 16, !tbaa !5
  %42 = add <4 x i32> %38, %33
  %43 = add <4 x i32> %41, %34
  %44 = or i64 %32, 8
  %45 = getelementptr inbounds [12 x i32], [12 x i32]* %4, i64 0, i64 %44
  %46 = bitcast i32* %45 to <4 x i32>*
  %47 = load <4 x i32>, <4 x i32>* %46, align 16, !tbaa !5
  %48 = getelementptr inbounds i32, i32* %45, i64 4
  %49 = bitcast i32* %48 to <4 x i32>*
  %50 = load <4 x i32>, <4 x i32>* %49, align 16, !tbaa !5
  %51 = add <4 x i32> %47, %42
  %52 = add <4 x i32> %50, %43
  %53 = or i64 %32, 16
  %54 = getelementptr inbounds [12 x i32], [12 x i32]* %4, i64 0, i64 %53
  %55 = bitcast i32* %54 to <4 x i32>*
  %56 = load <4 x i32>, <4 x i32>* %55, align 16, !tbaa !5
  %57 = getelementptr inbounds i32, i32* %54, i64 4
  %58 = bitcast i32* %57 to <4 x i32>*
  %59 = load <4 x i32>, <4 x i32>* %58, align 16, !tbaa !5
  %60 = add <4 x i32> %56, %51
  %61 = add <4 x i32> %59, %52
  %62 = or i64 %32, 24
  %63 = getelementptr inbounds [12 x i32], [12 x i32]* %4, i64 0, i64 %62
  %64 = bitcast i32* %63 to <4 x i32>*
  %65 = load <4 x i32>, <4 x i32>* %64, align 16, !tbaa !5
  %66 = getelementptr inbounds i32, i32* %63, i64 4
  %67 = bitcast i32* %66 to <4 x i32>*
  %68 = load <4 x i32>, <4 x i32>* %67, align 16, !tbaa !5
  %69 = add <4 x i32> %65, %60
  %70 = add <4 x i32> %68, %61
  %71 = add nuw i64 %32, 32
  %72 = add i64 %35, -4
  %73 = icmp eq i64 %72, 0
  br i1 %73, label %74, label %31, !llvm.loop !9

74:                                               ; preds = %31, %22
  %75 = phi <4 x i32> [ undef, %22 ], [ %69, %31 ]
  %76 = phi <4 x i32> [ undef, %22 ], [ %70, %31 ]
  %77 = phi i64 [ 0, %22 ], [ %71, %31 ]
  %78 = phi <4 x i32> [ zeroinitializer, %22 ], [ %69, %31 ]
  %79 = phi <4 x i32> [ zeroinitializer, %22 ], [ %70, %31 ]
  %80 = icmp eq i64 %27, 0
  br i1 %80, label %97, label %81

81:                                               ; preds = %74, %81
  %82 = phi i64 [ %94, %81 ], [ %77, %74 ]
  %83 = phi <4 x i32> [ %92, %81 ], [ %78, %74 ]
  %84 = phi <4 x i32> [ %93, %81 ], [ %79, %74 ]
  %85 = phi i64 [ %95, %81 ], [ %27, %74 ]
  %86 = getelementptr inbounds [12 x i32], [12 x i32]* %4, i64 0, i64 %82
  %87 = bitcast i32* %86 to <4 x i32>*
  %88 = load <4 x i32>, <4 x i32>* %87, align 16, !tbaa !5
  %89 = getelementptr inbounds i32, i32* %86, i64 4
  %90 = bitcast i32* %89 to <4 x i32>*
  %91 = load <4 x i32>, <4 x i32>* %90, align 16, !tbaa !5
  %92 = add <4 x i32> %88, %83
  %93 = add <4 x i32> %91, %84
  %94 = add nuw i64 %82, 8
  %95 = add i64 %85, -1
  %96 = icmp eq i64 %95, 0
  br i1 %96, label %97, label %81, !llvm.loop !12

97:                                               ; preds = %81, %74
  %98 = phi <4 x i32> [ %75, %74 ], [ %92, %81 ]
  %99 = phi <4 x i32> [ %76, %74 ], [ %93, %81 ]
  %100 = add <4 x i32> %99, %98
  %101 = call i32 @llvm.vector.reduce.add.v4i32(<4 x i32> %100)
  %102 = icmp eq i64 %23, %20
  br i1 %102, label %114, label %103

103:                                              ; preds = %18, %97
  %104 = phi i64 [ 0, %18 ], [ %23, %97 ]
  %105 = phi i32 [ 0, %18 ], [ %101, %97 ]
  br label %106

106:                                              ; preds = %103, %106
  %107 = phi i64 [ %112, %106 ], [ %104, %103 ]
  %108 = phi i32 [ %111, %106 ], [ %105, %103 ]
  %109 = getelementptr inbounds [12 x i32], [12 x i32]* %4, i64 0, i64 %107
  %110 = load i32, i32* %109, align 4, !tbaa !5
  %111 = add nsw i32 %110, %108
  %112 = add nuw nsw i64 %107, 1
  %113 = icmp eq i64 %112, %20
  br i1 %113, label %114, label %106, !llvm.loop !14

114:                                              ; preds = %106, %97, %16
  %115 = phi i32 [ 0, %16 ], [ %101, %97 ], [ %111, %106 ]
  %116 = add nsw i32 %115, %2
  call void @llvm.lifetime.end.p0i8(i64 48, i8* nonnull %5) #7
  ret i32 %116
}

; Function Attrs: argmemonly mustprogress nofree nosync nounwind willreturn
declare void @llvm.lifetime.start.p0i8(i64 immarg, i8* nocapture) #2

; Function Attrs: argmemonly mustprogress nofree nounwind willreturn
declare void @llvm.memcpy.p0i8.p0i8.i64(i8* noalias nocapture writeonly, i8* noalias nocapture readonly, i64, i1 immarg) #3

; Function Attrs: argmemonly mustprogress nofree nosync nounwind willreturn
declare void @llvm.lifetime.end.p0i8(i64 immarg, i8* nocapture) #2

; Function Attrs: nofree nounwind sspstrong uwtable
define dso_local i32 @main() local_unnamed_addr #4 {
  %1 = alloca [12 x i32], align 16
  %2 = alloca i32, align 4
  %3 = alloca i32, align 4
  %4 = alloca i32, align 4
  %5 = bitcast i32* %2 to i8*
  call void @llvm.lifetime.start.p0i8(i64 4, i8* nonnull %5) #7
  %6 = bitcast i32* %3 to i8*
  call void @llvm.lifetime.start.p0i8(i64 4, i8* nonnull %6) #7
  %7 = bitcast i32* %4 to i8*
  call void @llvm.lifetime.start.p0i8(i64 4, i8* nonnull %7) #7
  %8 = call i32 (i8*, ...) @__isoc99_scanf(i8* getelementptr inbounds ([7 x i8], [7 x i8]* @.str, i64 0, i64 0), i32* nonnull %2, i32* nonnull %3, i32* nonnull %4)
  %9 = load i32, i32* %2, align 4, !tbaa !5
  %10 = load i32, i32* %3, align 4, !tbaa !5
  %11 = load i32, i32* %4, align 4, !tbaa !5
  %12 = bitcast [12 x i32]* %1 to i8*
  call void @llvm.lifetime.start.p0i8(i64 48, i8* nonnull %12) #7
  call void @llvm.memcpy.p0i8.p0i8.i64(i8* noundef nonnull align 16 dereferenceable(48) %12, i8* noundef nonnull align 16 dereferenceable(48) bitcast ([12 x i32]* @__const.whichday.mon to i8*), i64 48, i1 false) #7
  %13 = srem i32 %9, 400
  %14 = icmp eq i32 %13, 0
  br i1 %14, label %21, label %15

15:                                               ; preds = %0
  %16 = and i32 %9, 3
  %17 = icmp eq i32 %16, 0
  %18 = srem i32 %9, 100
  %19 = icmp ne i32 %18, 0
  %20 = and i1 %17, %19
  br i1 %20, label %21, label %23

21:                                               ; preds = %15, %0
  %22 = getelementptr inbounds [12 x i32], [12 x i32]* %1, i64 0, i64 1
  store i32 29, i32* %22, align 4, !tbaa !5
  br label %23

23:                                               ; preds = %21, %15
  %24 = icmp sgt i32 %10, 1
  br i1 %24, label %25, label %121

25:                                               ; preds = %23
  %26 = add nsw i32 %10, -1
  %27 = zext i32 %26 to i64
  %28 = icmp ult i32 %26, 8
  br i1 %28, label %110, label %29

29:                                               ; preds = %25
  %30 = and i64 %27, 4294967288
  %31 = add nsw i64 %30, -8
  %32 = lshr exact i64 %31, 3
  %33 = add nuw nsw i64 %32, 1
  %34 = and i64 %33, 3
  %35 = icmp ult i64 %31, 24
  br i1 %35, label %81, label %36

36:                                               ; preds = %29
  %37 = and i64 %33, 4611686018427387900
  br label %38

38:                                               ; preds = %38, %36
  %39 = phi i64 [ 0, %36 ], [ %78, %38 ]
  %40 = phi <4 x i32> [ zeroinitializer, %36 ], [ %76, %38 ]
  %41 = phi <4 x i32> [ zeroinitializer, %36 ], [ %77, %38 ]
  %42 = phi i64 [ %37, %36 ], [ %79, %38 ]
  %43 = getelementptr inbounds [12 x i32], [12 x i32]* %1, i64 0, i64 %39
  %44 = bitcast i32* %43 to <4 x i32>*
  %45 = load <4 x i32>, <4 x i32>* %44, align 16, !tbaa !5
  %46 = getelementptr inbounds i32, i32* %43, i64 4
  %47 = bitcast i32* %46 to <4 x i32>*
  %48 = load <4 x i32>, <4 x i32>* %47, align 16, !tbaa !5
  %49 = add <4 x i32> %45, %40
  %50 = add <4 x i32> %48, %41
  %51 = or i64 %39, 8
  %52 = getelementptr inbounds [12 x i32], [12 x i32]* %1, i64 0, i64 %51
  %53 = bitcast i32* %52 to <4 x i32>*
  %54 = load <4 x i32>, <4 x i32>* %53, align 16, !tbaa !5
  %55 = getelementptr inbounds i32, i32* %52, i64 4
  %56 = bitcast i32* %55 to <4 x i32>*
  %57 = load <4 x i32>, <4 x i32>* %56, align 16, !tbaa !5
  %58 = add <4 x i32> %54, %49
  %59 = add <4 x i32> %57, %50
  %60 = or i64 %39, 16
  %61 = getelementptr inbounds [12 x i32], [12 x i32]* %1, i64 0, i64 %60
  %62 = bitcast i32* %61 to <4 x i32>*
  %63 = load <4 x i32>, <4 x i32>* %62, align 16, !tbaa !5
  %64 = getelementptr inbounds i32, i32* %61, i64 4
  %65 = bitcast i32* %64 to <4 x i32>*
  %66 = load <4 x i32>, <4 x i32>* %65, align 16, !tbaa !5
  %67 = add <4 x i32> %63, %58
  %68 = add <4 x i32> %66, %59
  %69 = or i64 %39, 24
  %70 = getelementptr inbounds [12 x i32], [12 x i32]* %1, i64 0, i64 %69
  %71 = bitcast i32* %70 to <4 x i32>*
  %72 = load <4 x i32>, <4 x i32>* %71, align 16, !tbaa !5
  %73 = getelementptr inbounds i32, i32* %70, i64 4
  %74 = bitcast i32* %73 to <4 x i32>*
  %75 = load <4 x i32>, <4 x i32>* %74, align 16, !tbaa !5
  %76 = add <4 x i32> %72, %67
  %77 = add <4 x i32> %75, %68
  %78 = add nuw i64 %39, 32
  %79 = add i64 %42, -4
  %80 = icmp eq i64 %79, 0
  br i1 %80, label %81, label %38, !llvm.loop !16

81:                                               ; preds = %38, %29
  %82 = phi <4 x i32> [ undef, %29 ], [ %76, %38 ]
  %83 = phi <4 x i32> [ undef, %29 ], [ %77, %38 ]
  %84 = phi i64 [ 0, %29 ], [ %78, %38 ]
  %85 = phi <4 x i32> [ zeroinitializer, %29 ], [ %76, %38 ]
  %86 = phi <4 x i32> [ zeroinitializer, %29 ], [ %77, %38 ]
  %87 = icmp eq i64 %34, 0
  br i1 %87, label %104, label %88

88:                                               ; preds = %81, %88
  %89 = phi i64 [ %101, %88 ], [ %84, %81 ]
  %90 = phi <4 x i32> [ %99, %88 ], [ %85, %81 ]
  %91 = phi <4 x i32> [ %100, %88 ], [ %86, %81 ]
  %92 = phi i64 [ %102, %88 ], [ %34, %81 ]
  %93 = getelementptr inbounds [12 x i32], [12 x i32]* %1, i64 0, i64 %89
  %94 = bitcast i32* %93 to <4 x i32>*
  %95 = load <4 x i32>, <4 x i32>* %94, align 16, !tbaa !5
  %96 = getelementptr inbounds i32, i32* %93, i64 4
  %97 = bitcast i32* %96 to <4 x i32>*
  %98 = load <4 x i32>, <4 x i32>* %97, align 16, !tbaa !5
  %99 = add <4 x i32> %95, %90
  %100 = add <4 x i32> %98, %91
  %101 = add nuw i64 %89, 8
  %102 = add i64 %92, -1
  %103 = icmp eq i64 %102, 0
  br i1 %103, label %104, label %88, !llvm.loop !17

104:                                              ; preds = %88, %81
  %105 = phi <4 x i32> [ %82, %81 ], [ %99, %88 ]
  %106 = phi <4 x i32> [ %83, %81 ], [ %100, %88 ]
  %107 = add <4 x i32> %106, %105
  %108 = call i32 @llvm.vector.reduce.add.v4i32(<4 x i32> %107)
  %109 = icmp eq i64 %30, %27
  br i1 %109, label %121, label %110

110:                                              ; preds = %25, %104
  %111 = phi i64 [ 0, %25 ], [ %30, %104 ]
  %112 = phi i32 [ 0, %25 ], [ %108, %104 ]
  br label %113

113:                                              ; preds = %110, %113
  %114 = phi i64 [ %119, %113 ], [ %111, %110 ]
  %115 = phi i32 [ %118, %113 ], [ %112, %110 ]
  %116 = getelementptr inbounds [12 x i32], [12 x i32]* %1, i64 0, i64 %114
  %117 = load i32, i32* %116, align 4, !tbaa !5
  %118 = add nsw i32 %117, %115
  %119 = add nuw nsw i64 %114, 1
  %120 = icmp eq i64 %119, %27
  br i1 %120, label %121, label %113, !llvm.loop !18

121:                                              ; preds = %113, %104, %23
  %122 = phi i32 [ 0, %23 ], [ %108, %104 ], [ %118, %113 ]
  %123 = add nsw i32 %122, %11
  call void @llvm.lifetime.end.p0i8(i64 48, i8* nonnull %12) #7
  %124 = call i32 (i8*, ...) @printf(i8* nonnull dereferenceable(1) getelementptr inbounds ([3 x i8], [3 x i8]* @.str.1, i64 0, i64 0), i32 %123)
  call void @llvm.lifetime.end.p0i8(i64 4, i8* nonnull %7) #7
  call void @llvm.lifetime.end.p0i8(i64 4, i8* nonnull %6) #7
  call void @llvm.lifetime.end.p0i8(i64 4, i8* nonnull %5) #7
  ret i32 0
}

; Function Attrs: nofree nounwind
declare noundef i32 @__isoc99_scanf(i8* nocapture noundef readonly, ...) local_unnamed_addr #5

; Function Attrs: nofree nounwind
declare noundef i32 @printf(i8* nocapture noundef readonly, ...) local_unnamed_addr #5

; Function Attrs: nofree nosync nounwind readnone willreturn
declare i32 @llvm.vector.reduce.add.v4i32(<4 x i32>) #6


!llvm.module.flags = !{!0, !1, !2, !3}
!llvm.ident = !{!4}

!0 = !{i32 1, !"wchar_size", i32 4}
!1 = !{i32 7, !"PIC Level", i32 2}
!2 = !{i32 7, !"PIE Level", i32 2}
!3 = !{i32 7, !"uwtable", i32 1}
!4 = !{!"clang version 13.0.0"}
!5 = !{!6, !6, i64 0}
!6 = !{!"int", !7, i64 0}
!7 = !{!"omnipotent char", !8, i64 0}
!8 = !{!"Simple C/C++ TBAA"}
!9 = distinct !{!9, !10, !11}
!10 = !{!"llvm.loop.mustprogress"}
!11 = !{!"llvm.loop.isvectorized", i32 1}
!12 = distinct !{!12, !13}
!13 = !{!"llvm.loop.unroll.disable"}
!14 = distinct !{!14, !10, !15, !11}
!15 = !{!"llvm.loop.unroll.runtime.disable"}
!16 = distinct !{!16, !10, !11}
!17 = distinct !{!17, !13}
!18 = distinct !{!18, !10, !15, !11}
